///////////////////////////////////////////////////////////////////////////////
//
// IAR C/C++ Compiler V10.30.1.6000 for 8051              11/Dec/2019  17:17:27
// Copyright 2004-2018 IAR Systems AB.
// PC-locked license - IAR Embedded Workbench for 8051
//
//    Core               =  plain
//    Code model         =  banked
//    Data model         =  large
//    Calling convention =  xdata reentrant
//    Constant location  =  data_rom
//    Dptr setup         =  1,16
//                          
//    Source file        =  
//        D:\Keus_Docs\Z-Stack 3.0.2\Components\keus\keus_memory.c
//    Command line       =  
//        -f C:\Users\Monisha\AppData\Local\Temp\EW24D0.tmp
//        ("D:\Keus_Docs\Z-Stack 3.0.2\Components\keus\keus_memory.c" -D
//        SECURE=1 -D TC_LINKKEY_JOIN -D NV_INIT -D NV_RESTORE -D HAL_KEY=FALSE
//        -D HAL_LCD=FALSE -D HAL_LED=FALSE -D HAL_UART=TRUE -D HAL_UART_ISR=1
//        -D HAL_UART_DMA=2 -D HAL_UART_DMA_RX_MAX=64 -D HAL_UART_DMA_TX_MAX=64
//        -D NWK_MAX_DEVICE_LIST=5 -D NWK_LINK_STATUS_PERIOD=50 -D
//        INT_HEAP_LEN=3172 -D OSC32K_CRYSTAL_INSTALLED=FALSE -D
//        MULTICAST_ENABLED=FALSE -D APS_MAX_GROUPS=10 -D ZCL_BASIC -D
//        ZCL_IDENTIFY -D ZCL_READ -D DISABLE_GREENPOWER_BASIC_PROXY -D
//        KEUS_GPIO_INTERRUPT_HANDLER_DISABLE -lC "D:\Keus_Docs\Z-Stack
//        3.0.2\Projects\zstack\HomeAutomation\GenericApp -
//        bkp\CC2530DB\RouterEB\List" -lA "D:\Keus_Docs\Z-Stack
//        3.0.2\Projects\zstack\HomeAutomation\GenericApp -
//        bkp\CC2530DB\RouterEB\List" --diag_suppress Pe001,Pa010 -o
//        "D:\Keus_Docs\Z-Stack 3.0.2\Projects\zstack\HomeAutomation\GenericApp
//        - bkp\CC2530DB\RouterEB\Obj" -e --debug --core=plain --dptr=16,1
//        --data_model=large --code_model=banked
//        --calling_convention=xdata_reentrant --place_constants=data_rom
//        --nr_virtual_regs 16 -f "D:\Keus_Docs\Z-Stack
//        3.0.2\Projects\zstack\HomeAutomation\GenericApp -
//        bkp\CC2530DB\..\..\..\Tools\CC2530DB\f8wRouter.cfg" (-DCPU32MHZ
//        -DROOT=__near_func -DMAC_CFG_APP_PENDING_QUEUE=TRUE
//        -DMAC_CFG_TX_DATA_MAX=5 -DMAC_CFG_TX_MAX=8 -DMAC_CFG_RX_MAX=5
//        -DRTR_NWK) -f "D:\Keus_Docs\Z-Stack
//        3.0.2\Projects\zstack\HomeAutomation\GenericApp -
//        bkp\CC2530DB\..\..\..\Tools\CC2530DB\f8wConfig.cfg" (-DZIGBEEPRO
//        -DSECURE=1 -DZG_SECURE_DYNAMIC=0 -DREFLECTOR
//        -DDEFAULT_CHANLIST=0x00000800 -DZDAPP_CONFIG_PAN_ID=0xFFFF
//        -DNWK_START_DELAY=100 -DEXTENDED_JOINING_RANDOM_MASK=0x007F
//        -DBEACON_REQUEST_DELAY=100 -DBEACON_REQ_DELAY_MASK=0x00FF
//        -DLINK_STATUS_JITTER_MASK=0x007F -DROUTE_EXPIRY_TIME=30
//        -DAPSC_ACK_WAIT_DURATION_POLLED=3000 -DNWK_INDIRECT_MSG_TIMEOUT=7
//        -DMAX_RREQ_ENTRIES=8 -DAPSC_MAX_FRAME_RETRIES=3
//        -DNWK_MAX_DATA_RETRIES=2 -DMAX_POLL_FAILURE_RETRIES=2 -DMAX_BCAST=9
//        -DAPS_MAX_GROUPS=16 -DMAX_RTG_ENTRIES=40 -DNWK_MAX_BINDING_ENTRIES=4
//        -DMAX_BINDING_CLUSTER_IDS=4 -DDEFAULT_KEY={0}
//        -DMAC_MAX_FRAME_SIZE=116 -DZDNWKMGR_MIN_TRANSMISSIONS=20
//        "-DCONST=const __code" -DGENERIC=__generic -DRFD_RCVC_ALWAYS_ON=FALSE
//        -DPOLL_RATE=1000 -DQUEUED_POLL_RATE=100 -DRESPONSE_POLL_RATE=100
//        -DREJOIN_POLL_RATE=440 -DREJOIN_BACKOFF=900000 -DREJOIN_SCAN=900000
//        -DENABLE_LED4_DISABLE_S1) -f "D:\Keus_Docs\Z-Stack
//        3.0.2\Projects\zstack\HomeAutomation\GenericApp -
//        bkp\CC2530DB\..\..\..\Tools\CC2530DB\f8wZCL.cfg" -I
//        "D:\Keus_Docs\Z-Stack 3.0.2\Projects\zstack\HomeAutomation\GenericApp
//        - bkp\CC2530DB\" -I "D:\Keus_Docs\Z-Stack
//        3.0.2\Projects\zstack\HomeAutomation\GenericApp -
//        bkp\CC2530DB\..\Source\" -I "D:\Keus_Docs\Z-Stack
//        3.0.2\Projects\zstack\HomeAutomation\GenericApp -
//        bkp\CC2530DB\..\..\Source\" -I "D:\Keus_Docs\Z-Stack
//        3.0.2\Projects\zstack\HomeAutomation\GenericApp -
//        bkp\CC2530DB\..\..\..\ZMain\TI2530DB\" -I "D:\Keus_Docs\Z-Stack
//        3.0.2\Projects\zstack\HomeAutomation\GenericApp -
//        bkp\CC2530DB\..\..\..\..\..\Components\hal\include\" -I
//        "D:\Keus_Docs\Z-Stack 3.0.2\Projects\zstack\HomeAutomation\GenericApp
//        - bkp\CC2530DB\..\..\..\..\..\Components\hal\target\CC2530EB\" -I
//        "D:\Keus_Docs\Z-Stack 3.0.2\Projects\zstack\HomeAutomation\GenericApp
//        - bkp\CC2530DB\..\..\..\..\..\Components\mac\include\" -I
//        "D:\Keus_Docs\Z-Stack 3.0.2\Projects\zstack\HomeAutomation\GenericApp
//        - bkp\CC2530DB\..\..\..\..\..\Components\mac\high_level\" -I
//        "D:\Keus_Docs\Z-Stack 3.0.2\Projects\zstack\HomeAutomation\GenericApp
//        - bkp\CC2530DB\..\..\..\..\..\Components\mac\low_level\srf04\" -I
//        "D:\Keus_Docs\Z-Stack 3.0.2\Projects\zstack\HomeAutomation\GenericApp
//        -
//        bkp\CC2530DB\..\..\..\..\..\Components\mac\low_level\srf04\single_chip\"
//        -I "D:\Keus_Docs\Z-Stack
//        3.0.2\Projects\zstack\HomeAutomation\GenericApp -
//        bkp\CC2530DB\..\..\..\..\..\Components\mt\" -I "D:\Keus_Docs\Z-Stack
//        3.0.2\Projects\zstack\HomeAutomation\GenericApp -
//        bkp\CC2530DB\..\..\..\..\..\Components\osal\include\" -I
//        "D:\Keus_Docs\Z-Stack 3.0.2\Projects\zstack\HomeAutomation\GenericApp
//        - bkp\CC2530DB\..\..\..\..\..\Components\services\saddr\" -I
//        "D:\Keus_Docs\Z-Stack 3.0.2\Projects\zstack\HomeAutomation\GenericApp
//        - bkp\CC2530DB\..\..\..\..\..\Components\services\sdata\" -I
//        "D:\Keus_Docs\Z-Stack 3.0.2\Projects\zstack\HomeAutomation\GenericApp
//        - bkp\CC2530DB\..\..\..\..\..\Components\stack\af\" -I
//        "D:\Keus_Docs\Z-Stack 3.0.2\Projects\zstack\HomeAutomation\GenericApp
//        - bkp\CC2530DB\..\..\..\..\..\Components\stack\bdb\" -I
//        "D:\Keus_Docs\Z-Stack 3.0.2\Projects\zstack\HomeAutomation\GenericApp
//        - bkp\CC2530DB\..\..\..\..\..\Components\stack\nwk\" -I
//        "D:\Keus_Docs\Z-Stack 3.0.2\Projects\zstack\HomeAutomation\GenericApp
//        - bkp\CC2530DB\..\..\..\..\..\Components\stack\bdb\" -I
//        "D:\Keus_Docs\Z-Stack 3.0.2\Projects\zstack\HomeAutomation\GenericApp
//        - bkp\CC2530DB\..\..\..\..\..\Components\stack\gp\" -I
//        "D:\Keus_Docs\Z-Stack 3.0.2\Projects\zstack\HomeAutomation\GenericApp
//        - bkp\CC2530DB\..\..\..\..\..\Components\stack\sapi\" -I
//        "D:\Keus_Docs\Z-Stack 3.0.2\Projects\zstack\HomeAutomation\GenericApp
//        - bkp\CC2530DB\..\..\..\..\..\Components\stack\sec\" -I
//        "D:\Keus_Docs\Z-Stack 3.0.2\Projects\zstack\HomeAutomation\GenericApp
//        - bkp\CC2530DB\..\..\..\..\..\Components\stack\sys\" -I
//        "D:\Keus_Docs\Z-Stack 3.0.2\Projects\zstack\HomeAutomation\GenericApp
//        - bkp\CC2530DB\..\..\..\..\..\Components\stack\zcl\" -I
//        "D:\Keus_Docs\Z-Stack 3.0.2\Projects\zstack\HomeAutomation\GenericApp
//        - bkp\CC2530DB\..\..\..\..\..\Components\stack\zdo\" -I
//        "D:\Keus_Docs\Z-Stack 3.0.2\Projects\zstack\HomeAutomation\GenericApp
//        - bkp\CC2530DB\..\..\..\..\..\Components\zmac\" -I
//        "D:\Keus_Docs\Z-Stack 3.0.2\Projects\zstack\HomeAutomation\GenericApp
//        - bkp\CC2530DB\..\..\..\..\..\Components\zmac\f8w\" -I
//        "D:\Keus_Docs\Z-Stack 3.0.2\Projects\zstack\HomeAutomation\GenericApp
//        - bkp\CC2530DB\..\..\..\..\..\Components\keus\" -Ohz
//        --require_prototypes)
//    Locale             =  English_USA.1252
//    List file          =  
//        D:\Keus_Docs\Z-Stack 3.0.2\Projects\zstack\HomeAutomation\GenericApp
//        - bkp\CC2530DB\RouterEB\List\keus_memory.s51
//
///////////////////////////////////////////////////////////////////////////////

        NAME keus_memory

        RTMODEL "__SystemLibrary", "CLib"
        RTMODEL "__calling_convention", "xdata_reentrant"
        RTMODEL "__code_model", "banked"
        RTMODEL "__core", "plain"
        RTMODEL "__data_model", "large"
        RTMODEL "__dptr_size", "16"
        RTMODEL "__extended_stack", "disabled"
        RTMODEL "__location_for_constants", "data"
        RTMODEL "__number_of_dptrs", "1"
        RTMODEL "__register_banks", "*"
        RTMODEL "__rt_version", "1"

        RSEG DOVERLAY:DATA:NOROOT(0)
        RSEG IOVERLAY:IDATA:NOROOT(0)
        RSEG ISTACK:IDATA:NOROOT(0)
        RSEG PSTACK:XDATA:NOROOT(0)
        RSEG XSTACK:XDATA:NOROOT(0)

        EXTERN ?V0
        EXTERN ?V1
        EXTERN ?BANKED_ENTER_XDATA
        EXTERN ?BANKED_LEAVE_XDATA
        EXTERN ?BDISPATCH
        EXTERN ?DEALLOC_XSTACK8
        EXTERN ?PUSH_XSTACK_I_TWO
        EXTERN __INIT_XDATA_I
        EXTERN __INIT_XDATA_Z

        PUBLIC `??KeusThemeSwitchMiniMemoryInit::?relay`
        FUNCTION `??KeusThemeSwitchMiniMemoryInit::?relay`,0203H
        PUBLIC `??KeusThemeSwitchMiniReadConfigDataIntoMemory::`
        FUNCTION `??KeusThemeSwitchMiniReadConfigDataIntoMemory::`,0203H
        PUBLIC `??KeusThemeSwitchMiniWriteConfigDataIntoMemory:`
        FUNCTION `??KeusThemeSwitchMiniWriteConfigDataIntoMemory:`,0203H
        PUBLIC KeusThemeSwitchMiniMemoryInit
        FUNCTION KeusThemeSwitchMiniMemoryInit,0a1203H
        ARGFRAME XSTACK, 0, STACK
        LOCFRAME XSTACK, 12, STACK
        PUBLIC KeusThemeSwitchMiniReadConfigDataIntoMemory
        FUNCTION KeusThemeSwitchMiniReadConfigDataIntoMemory,0a1203H
        ARGFRAME XSTACK, 0, STACK
        LOCFRAME XSTACK, 14, STACK
        PUBLIC KeusThemeSwitchMiniWriteConfigDataIntoMemory
        FUNCTION KeusThemeSwitchMiniWriteConfigDataIntoMemory,0a1203H
        ARGFRAME XSTACK, 0, STACK
        LOCFRAME XSTACK, 14, STACK
        PUBLIC count
        PUBLIC count1
        PUBLIC count3
        PUBLIC debounce
        PUBLIC toggle
        PUBLIC toggle1
        PUBLIC toggle3
        
          CFI Names cfiNames0
          CFI StackFrame CFA_SP SP IDATA
          CFI StackFrame CFA_PSP16 PSP16 XDATA
          CFI StackFrame CFA_XSP16 XSP16 XDATA
          CFI StaticOverlayFrame CFA_IOVERLAY IOVERLAY
          CFI StaticOverlayFrame CFA_DOVERLAY DOVERLAY
          CFI Resource `PSW.CY`:1, `B.BR0`:1, `B.BR1`:1, `B.BR2`:1, `B.BR3`:1
          CFI Resource `B.BR4`:1, `B.BR5`:1, `B.BR6`:1, `B.BR7`:1, `VB.BR8`:1
          CFI Resource `VB.BR9`:1, `VB.BR10`:1, `VB.BR11`:1, `VB.BR12`:1
          CFI Resource `VB.BR13`:1, `VB.BR14`:1, `VB.BR15`:1, VB:8, B:8, A:8
          CFI Resource PSW:8, DPL0:8, DPH0:8, R0:8, R1:8, R2:8, R3:8, R4:8, R5:8
          CFI Resource R6:8, R7:8, V0:8, V1:8, V2:8, V3:8, V4:8, V5:8, V6:8, V7:8
          CFI Resource V8:8, V9:8, V10:8, V11:8, V12:8, V13:8, V14:8, V15:8, SP:8
          CFI Resource PSPH:8, PSPL:8, PSP16:16, XSPH:8, XSPL:8, XSP16:16
          CFI VirtualResource ?RET:24
          CFI Resource ?BRET_EXT:8
          CFI VirtualResource ?RET_HIGH:8, ?RET_LOW:8
          CFI ResourceParts PSP16 PSPH, PSPL
          CFI ResourceParts XSP16 XSPH, XSPL
          CFI ResourceParts ?RET ?BRET_EXT, ?RET_HIGH, ?RET_LOW
          CFI EndNames cfiNames0
        
          CFI Common cfiCommon0 Using cfiNames0
          CFI CodeAlign 1
          CFI DataAlign -1
          CFI ReturnAddress ?RET CODE
          CFI CFA_DOVERLAY Used
          CFI CFA_IOVERLAY Used
          CFI CFA_SP SP+-3
          CFI CFA_PSP16 PSP16+0
          CFI CFA_XSP16 XSP16+0
          CFI `PSW.CY` SameValue
          CFI `B.BR0` SameValue
          CFI `B.BR1` SameValue
          CFI `B.BR2` SameValue
          CFI `B.BR3` SameValue
          CFI `B.BR4` SameValue
          CFI `B.BR5` SameValue
          CFI `B.BR6` SameValue
          CFI `B.BR7` SameValue
          CFI `VB.BR8` SameValue
          CFI `VB.BR9` SameValue
          CFI `VB.BR10` SameValue
          CFI `VB.BR11` SameValue
          CFI `VB.BR12` SameValue
          CFI `VB.BR13` SameValue
          CFI `VB.BR14` SameValue
          CFI `VB.BR15` SameValue
          CFI VB SameValue
          CFI B Undefined
          CFI A Undefined
          CFI PSW SameValue
          CFI DPL0 SameValue
          CFI DPH0 SameValue
          CFI R0 Undefined
          CFI R1 Undefined
          CFI R2 Undefined
          CFI R3 Undefined
          CFI R4 Undefined
          CFI R5 Undefined
          CFI R6 SameValue
          CFI R7 SameValue
          CFI V0 SameValue
          CFI V1 SameValue
          CFI V2 SameValue
          CFI V3 SameValue
          CFI V4 SameValue
          CFI V5 SameValue
          CFI V6 SameValue
          CFI V7 SameValue
          CFI V8 SameValue
          CFI V9 SameValue
          CFI V10 SameValue
          CFI V11 SameValue
          CFI V12 SameValue
          CFI V13 SameValue
          CFI V14 SameValue
          CFI V15 SameValue
          CFI PSPH Undefined
          CFI PSPL Undefined
          CFI XSPH Undefined
          CFI XSPL Undefined
          CFI ?RET Concat
          CFI ?BRET_EXT Frame(CFA_SP, 3)
          CFI ?RET_HIGH Frame(CFA_SP, 2)
          CFI ?RET_LOW Frame(CFA_SP, 1)
          CFI EndCommon cfiCommon0
        
osal_nv_item_init   SYMBOL "osal_nv_item_init"
`??osal_nv_item_init::?relay` SYMBOL "?relay", osal_nv_item_init
osal_nv_read        SYMBOL "osal_nv_read"
`??osal_nv_read::?relay` SYMBOL "?relay", osal_nv_read
osal_nv_write       SYMBOL "osal_nv_write"
`??osal_nv_write::?relay` SYMBOL "?relay", osal_nv_write
KeusThemeSwitchMiniMemoryInit SYMBOL "KeusThemeSwitchMiniMemoryInit"
`??KeusThemeSwitchMiniMemoryInit::?relay` SYMBOL "?relay", KeusThemeSwitchMiniMemoryInit
KeusThemeSwitchMiniReadConfigDataIntoMemory SYMBOL "KeusThemeSwitchMiniReadConfigDataIntoMemory"
`??KeusThemeSwitchMiniReadConfigDataIntoMemory::` SYMBOL "?relay", KeusThemeSwitchMiniReadConfigDataIntoMemory
KeusThemeSwitchMiniWriteConfigDataIntoMemory SYMBOL "KeusThemeSwitchMiniWriteConfigDataIntoMemory"
`??KeusThemeSwitchMiniWriteConfigDataIntoMemory:` SYMBOL "?relay", KeusThemeSwitchMiniWriteConfigDataIntoMemory

        EXTERN `??osal_nv_item_init::?relay`
        FUNCTION `??osal_nv_item_init::?relay`,00H
        EXTERN `??osal_nv_read::?relay`
        FUNCTION `??osal_nv_read::?relay`,00H
        EXTERN `??osal_nv_write::?relay`
        FUNCTION `??osal_nv_write::?relay`,00H
        EXTERN config_data
        EXTERN osal_nv_item_init
        FUNCTION osal_nv_item_init,0202H
        ARGFRAME ISTACK, 0, STACK
        ARGFRAME PSTACK, 0, STACK
        ARGFRAME XSTACK, 12, STACK
        ARGFRAME IOVERLAY, 0, STATIC
        ARGFRAME DOVERLAY, 0, STATIC
        EXTERN osal_nv_read
        FUNCTION osal_nv_read,0202H
        ARGFRAME ISTACK, 0, STACK
        ARGFRAME PSTACK, 0, STACK
        ARGFRAME XSTACK, 14, STACK
        ARGFRAME IOVERLAY, 0, STATIC
        ARGFRAME DOVERLAY, 0, STATIC
        EXTERN osal_nv_write
        FUNCTION osal_nv_write,0202H
        ARGFRAME ISTACK, 0, STACK
        ARGFRAME PSTACK, 0, STACK
        ARGFRAME XSTACK, 14, STACK
        ARGFRAME IOVERLAY, 0, STATIC
        ARGFRAME DOVERLAY, 0, STATIC

// D:\Keus_Docs\Z-Stack 3.0.2\Components\keus\keus_memory.c
//    1 /*************************************************
//    2  * ***********KEUS_MEMORY.C**********************
//    3  * **********************************************/
//    4 
//    5 #include "keus_memory.h"

        RSEG XDATA_I:XDATA:NOROOT(0)
// bool debounce
debounce:
        DATA8
        DS 1
        REQUIRE `?<Initializer for debounce>`
        REQUIRE __INIT_XDATA_I

        RSEG XDATA_Z:XDATA:NOROOT(0)
        DATA8
// bool toggle
toggle:
        DS 1
        REQUIRE __INIT_XDATA_Z

        RSEG XDATA_Z:XDATA:NOROOT(0)
        DATA8
// bool toggle1
toggle1:
        DS 1
        REQUIRE __INIT_XDATA_Z

        RSEG XDATA_Z:XDATA:NOROOT(0)
        DATA8
// bool toggle3
toggle3:
        DS 1
        REQUIRE __INIT_XDATA_Z

        RSEG XDATA_Z:XDATA:NOROOT(0)
        DATA8
// uint8 count
count:
        DS 1
        REQUIRE __INIT_XDATA_Z

        RSEG XDATA_Z:XDATA:NOROOT(0)
        DATA8
// uint8 count1
count1:
        DS 1
        REQUIRE __INIT_XDATA_Z

        RSEG XDATA_Z:XDATA:NOROOT(0)
        DATA8
// uint8 count3
count3:
        DS 1
        REQUIRE __INIT_XDATA_Z
//    6 
//    7  extern CONFIG_INFO_t config_data;
//    8 
//    9 
//   10 /*******************************************************
//   11  * @fn          KeusThemeSwitchMiniMemoryInit
//   12  * @brief       nvic memory init
//   13  * @return
//   14  * @param
//   15  * *****************************************************/

        RSEG BANKED_CODE:HUGECODE:NOROOT(0)
//   16 bool KeusThemeSwitchMiniMemoryInit(void)
KeusThemeSwitchMiniMemoryInit:
          CFI Block cfiBlock0 Using cfiCommon0
          CFI Function KeusThemeSwitchMiniMemoryInit
        CODE
//   17 {
        FUNCALL KeusThemeSwitchMiniMemoryInit, osal_nv_item_init
        LOCFRAME ISTACK, 0, STACK
        LOCFRAME PSTACK, 0, STACK
        LOCFRAME XSTACK, 12, STACK
        LOCFRAME IOVERLAY, 0, STATIC
        LOCFRAME DOVERLAY, 0, STATIC
        ARGFRAME ISTACK, 0, STACK
        ARGFRAME PSTACK, 0, STACK
        ARGFRAME XSTACK, 12, STACK
        ARGFRAME IOVERLAY, 0, STATIC
        ARGFRAME DOVERLAY, 0, STATIC
        REQUIRE ?V0
        REQUIRE ?V1
        MOV       A,#-0xa
        LCALL     ?BANKED_ENTER_XDATA
          CFI DPH0 load(1, XDATA, add(CFA_XSP16, literal(-1)))
          CFI DPL0 load(1, XDATA, add(CFA_XSP16, literal(-2)))
          CFI ?BRET_EXT load(1, XDATA, add(CFA_XSP16, literal(-3)))
          CFI ?RET_HIGH load(1, XDATA, add(CFA_XSP16, literal(-4)))
          CFI ?RET_LOW load(1, XDATA, add(CFA_XSP16, literal(-5)))
          CFI R7 load(1, XDATA, add(CFA_XSP16, literal(-6)))
          CFI V1 load(1, XDATA, add(CFA_XSP16, literal(-7)))
          CFI V0 load(1, XDATA, add(CFA_XSP16, literal(-8)))
          CFI VB load(1, XDATA, add(CFA_XSP16, literal(-9)))
          CFI R6 load(1, XDATA, add(CFA_XSP16, literal(-10)))
          CFI CFA_SP SP+0
          CFI CFA_XSP16 add(XSP16, 10)
        ; Saved register size: 10
        ; Auto size: 0
//   18     //  for (uint8 i = 0; i < CLICK_TYPES; i++)
//   19     //  {
//   20     //    themeManager.btnThemeMap[i] = 255;
//   21     //  }
//   22 
//   23     uint8 res = osal_nv_item_init(NVIC_MEMORY_POSITION, sizeof(&config_data), (void *)&config_data);
        ; Setup parameters for call to function osal_nv_item_init
        MOV       ?V0,#config_data & 0xff
        MOV       ?V1,#(config_data >> 8) & 0xff
        MOV       R0,#?V0
        LCALL     ?PUSH_XSTACK_I_TWO
          CFI CFA_XSP16 add(XSP16, 12)
        MOV       R4,#0x2
        MOV       R5,#0x0
        MOV       R2,#0x10
        MOV       R3,#0x0
        LCALL     `??osal_nv_item_init::?relay`; Banked call to: osal_nv_item_init
        MOV       A,#0x2
        LCALL     ?DEALLOC_XSTACK8
          CFI CFA_XSP16 add(XSP16, 10)
        MOV       A,R1
        MOV       R0,A
//   24 
//   25     if (res == SUCCESS || res == NV_ITEM_UNINIT)
        JZ        ??KeusThemeSwitchMiniMemoryInit_0
        MOV       A,#0x9
        XRL       A,R0
        JNZ       ??KeusThemeSwitchMiniMemoryInit_1
//   26     {
//   27         return true;
??KeusThemeSwitchMiniMemoryInit_0:
        MOV       R1,#0x1
        SJMP      ??KeusThemeSwitchMiniMemoryInit_2
//   28     }
//   29     else
//   30     {
//   31         return false;
??KeusThemeSwitchMiniMemoryInit_1:
        MOV       R1,#0x0
//   32     }
??KeusThemeSwitchMiniMemoryInit_2:
          CFI EndBlock cfiBlock0
        REQUIRE ?Subroutine0
        ; // Fall through to label ?Subroutine0
//   33 }

        RSEG BANKED_CODE:HUGECODE:NOROOT(0)
?Subroutine0:
          CFI Block cfiBlock1 Using cfiCommon0
          CFI NoFunction
          CFI CFA_SP SP+0
          CFI CFA_XSP16 add(XSP16, 10)
          CFI VB load(1, XDATA, add(CFA_XSP16, literal(-9)))
          CFI DPL0 load(1, XDATA, add(CFA_XSP16, literal(-2)))
          CFI DPH0 load(1, XDATA, add(CFA_XSP16, literal(-1)))
          CFI R6 load(1, XDATA, add(CFA_XSP16, literal(-10)))
          CFI R7 load(1, XDATA, add(CFA_XSP16, literal(-6)))
          CFI V0 load(1, XDATA, add(CFA_XSP16, literal(-8)))
          CFI V1 load(1, XDATA, add(CFA_XSP16, literal(-7)))
          CFI ?BRET_EXT load(1, XDATA, add(CFA_XSP16, literal(-3)))
          CFI ?RET_HIGH load(1, XDATA, add(CFA_XSP16, literal(-4)))
          CFI ?RET_LOW load(1, XDATA, add(CFA_XSP16, literal(-5)))
        MOV       R7,#0x2
        LJMP      ?BANKED_LEAVE_XDATA
          CFI EndBlock cfiBlock1
//   34 /*******************************************************
//   35  * @fn      KeusThemeSwitchMiniReadConfigDataIntoMemory
//   36  * @brief    
//   37  * @return
//   38  * @param  
//   39  * ****************************************************/

        RSEG BANKED_CODE:HUGECODE:NOROOT(0)
//   40 bool KeusThemeSwitchMiniReadConfigDataIntoMemory(void)
KeusThemeSwitchMiniReadConfigDataIntoMemory:
          CFI Block cfiBlock2 Using cfiCommon0
          CFI Function KeusThemeSwitchMiniReadConfigDataIntoMemory
        CODE
//   41 {
        FUNCALL KeusThemeSwitchMiniReadConfigDataIntoMemory, osal_nv_read
        LOCFRAME ISTACK, 0, STACK
        LOCFRAME PSTACK, 0, STACK
        LOCFRAME XSTACK, 14, STACK
        LOCFRAME IOVERLAY, 0, STATIC
        LOCFRAME DOVERLAY, 0, STATIC
        ARGFRAME ISTACK, 0, STACK
        ARGFRAME PSTACK, 0, STACK
        ARGFRAME XSTACK, 14, STACK
        ARGFRAME IOVERLAY, 0, STATIC
        ARGFRAME DOVERLAY, 0, STATIC
        REQUIRE ?V0
        REQUIRE ?V1
        MOV       A,#-0xa
        LCALL     ?BANKED_ENTER_XDATA
          CFI DPH0 load(1, XDATA, add(CFA_XSP16, literal(-1)))
          CFI DPL0 load(1, XDATA, add(CFA_XSP16, literal(-2)))
          CFI ?BRET_EXT load(1, XDATA, add(CFA_XSP16, literal(-3)))
          CFI ?RET_HIGH load(1, XDATA, add(CFA_XSP16, literal(-4)))
          CFI ?RET_LOW load(1, XDATA, add(CFA_XSP16, literal(-5)))
          CFI R7 load(1, XDATA, add(CFA_XSP16, literal(-6)))
          CFI V1 load(1, XDATA, add(CFA_XSP16, literal(-7)))
          CFI V0 load(1, XDATA, add(CFA_XSP16, literal(-8)))
          CFI VB load(1, XDATA, add(CFA_XSP16, literal(-9)))
          CFI R6 load(1, XDATA, add(CFA_XSP16, literal(-10)))
          CFI CFA_SP SP+0
          CFI CFA_XSP16 add(XSP16, 10)
        ; Saved register size: 10
        ; Auto size: 0
//   42     uint8 res = osal_nv_read(NVIC_MEMORY_POSITION, 0, sizeof(&config_data), (void *)&config_data);
//   43 
//   44     if (res == SUCCESS)
        ; Setup parameters for call to function osal_nv_read
        MOV       ?V0,#config_data & 0xff
        MOV       ?V1,#(config_data >> 8) & 0xff
        MOV       R0,#?V0
        LCALL     ?PUSH_XSTACK_I_TWO
          CFI CFA_XSP16 add(XSP16, 12)
        MOV       ?V0,#0x2
        MOV       ?V1,#0x0
        MOV       R0,#?V0
        LCALL     ?PUSH_XSTACK_I_TWO
          CFI CFA_XSP16 add(XSP16, 14)
        MOV       R4,#0x0
        MOV       R5,#0x0
        MOV       R2,#0x10
        MOV       R3,#0x0
        LCALL     `??osal_nv_read::?relay`; Banked call to: osal_nv_read
        MOV       A,#0x4
        LCALL     ?DEALLOC_XSTACK8
          CFI CFA_XSP16 add(XSP16, 10)
        MOV       A,R1
        JNZ       ??KeusThemeSwitchMiniReadConfigDataIntoMemory_0
//   45     {
//   46         return true;
        MOV       R1,#0x1
        SJMP      ??KeusThemeSwitchMiniReadConfigDataIntoMemory_1
//   47     }
//   48     else
//   49     {
//   50         return false;
??KeusThemeSwitchMiniReadConfigDataIntoMemory_0:
        MOV       R1,#0x0
//   51     }
??KeusThemeSwitchMiniReadConfigDataIntoMemory_1:
        SJMP      ?Subroutine0
//   52 }
          CFI EndBlock cfiBlock2
//   53 /********************************************************
//   54  * @fn  KeusThemeSwitchMiniWriteConfigDataIntoMemory
//   55  * @brief   
//   56  * @return
//   57  * @param
//   58  * *****************************************************/

        RSEG BANKED_CODE:HUGECODE:NOROOT(0)
//   59 bool KeusThemeSwitchMiniWriteConfigDataIntoMemory(void)
KeusThemeSwitchMiniWriteConfigDataIntoMemory:
          CFI Block cfiBlock3 Using cfiCommon0
          CFI Function KeusThemeSwitchMiniWriteConfigDataIntoMemory
        CODE
//   60 {
        FUNCALL KeusThemeSwitchMiniWriteConfigDataIntoMemory, osal_nv_write
        LOCFRAME ISTACK, 0, STACK
        LOCFRAME PSTACK, 0, STACK
        LOCFRAME XSTACK, 14, STACK
        LOCFRAME IOVERLAY, 0, STATIC
        LOCFRAME DOVERLAY, 0, STATIC
        ARGFRAME ISTACK, 0, STACK
        ARGFRAME PSTACK, 0, STACK
        ARGFRAME XSTACK, 14, STACK
        ARGFRAME IOVERLAY, 0, STATIC
        ARGFRAME DOVERLAY, 0, STATIC
        REQUIRE ?V0
        REQUIRE ?V1
        MOV       A,#-0xa
        LCALL     ?BANKED_ENTER_XDATA
          CFI DPH0 load(1, XDATA, add(CFA_XSP16, literal(-1)))
          CFI DPL0 load(1, XDATA, add(CFA_XSP16, literal(-2)))
          CFI ?BRET_EXT load(1, XDATA, add(CFA_XSP16, literal(-3)))
          CFI ?RET_HIGH load(1, XDATA, add(CFA_XSP16, literal(-4)))
          CFI ?RET_LOW load(1, XDATA, add(CFA_XSP16, literal(-5)))
          CFI R7 load(1, XDATA, add(CFA_XSP16, literal(-6)))
          CFI V1 load(1, XDATA, add(CFA_XSP16, literal(-7)))
          CFI V0 load(1, XDATA, add(CFA_XSP16, literal(-8)))
          CFI VB load(1, XDATA, add(CFA_XSP16, literal(-9)))
          CFI R6 load(1, XDATA, add(CFA_XSP16, literal(-10)))
          CFI CFA_SP SP+0
          CFI CFA_XSP16 add(XSP16, 10)
        ; Saved register size: 10
        ; Auto size: 0
//   61  uint8 res = osal_nv_write(NVIC_MEMORY_POSITION, 0, sizeof(&config_data), (void *)&config_data);
//   62 
//   63  if (res == SUCCESS)
        ; Setup parameters for call to function osal_nv_write
        MOV       ?V0,#config_data & 0xff
        MOV       ?V1,#(config_data >> 8) & 0xff
        MOV       R0,#?V0
        LCALL     ?PUSH_XSTACK_I_TWO
          CFI CFA_XSP16 add(XSP16, 12)
        MOV       ?V0,#0x2
        MOV       ?V1,#0x0
        MOV       R0,#?V0
        LCALL     ?PUSH_XSTACK_I_TWO
          CFI CFA_XSP16 add(XSP16, 14)
        MOV       R4,#0x0
        MOV       R5,#0x0
        MOV       R2,#0x10
        MOV       R3,#0x0
        LCALL     `??osal_nv_write::?relay`; Banked call to: osal_nv_write
        MOV       A,#0x4
        LCALL     ?DEALLOC_XSTACK8
          CFI CFA_XSP16 add(XSP16, 10)
        MOV       A,R1
        JNZ       ??KeusThemeSwitchMiniWriteConfigDataIntoMemory_0
//   64  {
//   65    return true;
        MOV       R1,#0x1
        SJMP      ??KeusThemeSwitchMiniWriteConfigDataIntoMemory_1
//   66  }
//   67  else
//   68  {
//   69    return false;
??KeusThemeSwitchMiniWriteConfigDataIntoMemory_0:
        MOV       R1,#0x0
//   70  }
??KeusThemeSwitchMiniWriteConfigDataIntoMemory_1:
        SJMP      ?Subroutine0
//   71 }
          CFI EndBlock cfiBlock3

        RSEG XDATA_ID:CODE:NOROOT(0)
`?<Initializer for debounce>`:
        DATA8
        DB 1

        RSEG BANK_RELAYS:CODE:REORDER:NOROOT(0)
`??KeusThemeSwitchMiniMemoryInit::?relay`:
        CODE
        LCALL   ?BDISPATCH
        DATA24
        DC24    KeusThemeSwitchMiniMemoryInit

        RSEG BANK_RELAYS:CODE:REORDER:NOROOT(0)
`??KeusThemeSwitchMiniReadConfigDataIntoMemory::`:
        CODE
        LCALL   ?BDISPATCH
        DATA24
        DC24    KeusThemeSwitchMiniReadConfigDataIntoMemory

        RSEG BANK_RELAYS:CODE:REORDER:NOROOT(0)
`??KeusThemeSwitchMiniWriteConfigDataIntoMemory:`:
        CODE
        LCALL   ?BDISPATCH
        DATA24
        DC24    KeusThemeSwitchMiniWriteConfigDataIntoMemory

        END
// 
// 160 bytes in segment BANKED_CODE
//  18 bytes in segment BANK_RELAYS
//   1 byte  in segment XDATA_I
//   1 byte  in segment XDATA_ID
//   6 bytes in segment XDATA_Z
// 
//  19 bytes of CODE     memory
// 160 bytes of HUGECODE memory
//   7 bytes of XDATA    memory
//
//Errors: none
//Warnings: none
